target datalayout = "e-m:e-p270:32:32-p271:32:32-p272:64:64-i64:64-i128:128-f80:128-n8:16:32:64-S128"
target triple = "x86_64-pc-linux-gnu"

%struct.client_request = type { i32, ptr, i8, i8, i32, ptr, ptr, i32, i32 }

@pmi_version = internal global i32 0, align 4
@pmi_subversion = internal global i32 0, align 4
@.str.3 = private unnamed_addr constant [9 x i8] c"client.c\00", align 1
@__func__.client_req_init = private unnamed_addr constant [16 x i8] c"client_req_init\00", align 1
@.str.51 = private unnamed_addr constant [6 x i8] c"mcmd=\00", align 1
@.str.52 = private unnamed_addr constant [5 x i8] c"mcmd\00", align 1
@.str.53 = private unnamed_addr constant [5 x i8] c"cmd=\00", align 1
@.str.54 = private unnamed_addr constant [40 x i8] c"mpi/pmi2: request not begin with 'cmd='\00", align 1
@.str.55 = private unnamed_addr constant [30 x i8] c"mpi/pmi2: full request is: %s\00", align 1
@.str.56 = private unnamed_addr constant [56 x i8] c"mpi/pmi2: cmd not properly terminated in client request\00", align 1

; Function Attrs: nounwind uwtable
define dso_local i32 @is_pmi20() #0 {
  %1 = load i32, ptr @pmi_version, align 4
  %2 = icmp eq i32 %1, 2
  br i1 %2, label %3, label %6

3:                                                ; preds = %0
  %4 = load i32, ptr @pmi_subversion, align 4
  %5 = icmp eq i32 %4, 0
  br label %6

6:                                                ; preds = %3, %0
  %7 = phi i1 [ false, %0 ], [ %5, %3 ]
  %8 = zext i1 %7 to i32
  ret i32 %8
}

; Function Attrs: nounwind uwtable
define dso_local i32 @is_pmi11() #0 {
  %1 = load i32, ptr @pmi_version, align 4
  %2 = icmp eq i32 %1, 1
  br i1 %2, label %3, label %6

3:                                                ; preds = %0
  %4 = load i32, ptr @pmi_subversion, align 4
  %5 = icmp eq i32 %4, 1
  br label %6

6:                                                ; preds = %3, %0
  %7 = phi i1 [ false, %0 ], [ %5, %3 ]
  %8 = zext i1 %7 to i32
  ret i32 %8
}

; Function Attrs: nounwind uwtable
define internal i32 @_parse_cmd(ptr noundef %0) #0 {
  %2 = alloca i32, align 4
  %3 = alloca ptr, align 8
  %4 = alloca i32, align 4
  %5 = alloca i32, align 4
  %6 = alloca i32, align 4
  store ptr %0, ptr %3, align 8
  call void @llvm.lifetime.start.p0(i64 4, ptr %4) #7
  store i32 0, ptr %4, align 4
  call void @llvm.lifetime.start.p0(i64 4, ptr %5) #7
  store i32 0, ptr %5, align 4
  store i32 5, ptr %5, align 4
  %7 = load ptr, ptr %3, align 8
  %8 = getelementptr inbounds nuw %struct.client_request, ptr %7, i32 0, i32 1
  %9 = load ptr, ptr %8, align 8
  %10 = load i32, ptr %5, align 4
  %11 = sext i32 %10 to i64
  %12 = call i32 @slurm_xstrncmp(ptr noundef %9, ptr noundef @.str.51, i64 noundef %11)
  %13 = icmp ne i32 %12, 0
  br i1 %13, label %21, label %14

14:                                               ; preds = %1
  %15 = load ptr, ptr %3, align 8
  %16 = getelementptr inbounds nuw %struct.client_request, ptr %15, i32 0, i32 5
  store ptr @.str.52, ptr %16, align 8
  %17 = load ptr, ptr %3, align 8
  %18 = getelementptr inbounds nuw %struct.client_request, ptr %17, i32 0, i32 2
  store i8 10, ptr %18, align 8
  %19 = load ptr, ptr %3, align 8
  %20 = getelementptr inbounds nuw %struct.client_request, ptr %19, i32 0, i32 3
  store i8 10, ptr %20, align 1
  store i32 0, ptr %2, align 4
  store i32 1, ptr %6, align 4
  br label %160

21:                                               ; preds = %1
  store i32 4, ptr %5, align 4
  %22 = load ptr, ptr %3, align 8
  %23 = getelementptr inbounds nuw %struct.client_request, ptr %22, i32 0, i32 1
  %24 = load ptr, ptr %23, align 8
  %25 = load i32, ptr %5, align 4
  %26 = sext i32 %25 to i64
  %27 = call i32 @slurm_xstrncmp(ptr noundef %24, ptr noundef @.str.53, i64 noundef %26)
  %28 = icmp ne i32 %27, 0
  br i1 %28, label %29, label %35

29:                                               ; preds = %21
  %30 = call i32 (ptr, ...) @slurm_error(ptr noundef @.str.54)
  %31 = load ptr, ptr %3, align 8
  %32 = getelementptr inbounds nuw %struct.client_request, ptr %31, i32 0, i32 1
  %33 = load ptr, ptr %32, align 8
  %34 = call i32 (ptr, ...) @slurm_error(ptr noundef @.str.55, ptr noundef %33)
  store i32 -1, ptr %2, align 4
  store i32 1, ptr %6, align 4
  br label %160

35:                                               ; preds = %21
  %36 = load ptr, ptr %3, align 8
  %37 = getelementptr inbounds nuw %struct.client_request, ptr %36, i32 0, i32 1
  %38 = load ptr, ptr %37, align 8
  %39 = load i32, ptr %5, align 4
  %40 = sext i32 %39 to i64
  %41 = getelementptr inbounds i8, ptr %38, i64 %40
  %42 = load ptr, ptr %3, align 8
  %43 = getelementptr inbounds nuw %struct.client_request, ptr %42, i32 0, i32 5
  store ptr %41, ptr %43, align 8
  %44 = load i32, ptr %5, align 4
  store i32 %44, ptr %4, align 4
  %45 = call i32 @is_pmi11()
  %46 = icmp ne i32 %45, 0
  br i1 %46, label %47, label %92

47:                                               ; preds = %35
  %48 = load ptr, ptr %3, align 8
  %49 = getelementptr inbounds nuw %struct.client_request, ptr %48, i32 0, i32 2
  store i8 32, ptr %49, align 8
  %50 = load ptr, ptr %3, align 8
  %51 = getelementptr inbounds nuw %struct.client_request, ptr %50, i32 0, i32 3
  store i8 10, ptr %51, align 1
  br label %52

52:                                               ; preds = %88, %47
  %53 = load ptr, ptr %3, align 8
  %54 = getelementptr inbounds nuw %struct.client_request, ptr %53, i32 0, i32 1
  %55 = load ptr, ptr %54, align 8
  %56 = load i32, ptr %4, align 4
  %57 = sext i32 %56 to i64
  %58 = getelementptr inbounds i8, ptr %55, i64 %57
  %59 = load i8, ptr %58, align 1
  %60 = sext i8 %59 to i32
  %61 = load ptr, ptr %3, align 8
  %62 = getelementptr inbounds nuw %struct.client_request, ptr %61, i32 0, i32 2
  %63 = load i8, ptr %62, align 8
  %64 = sext i8 %63 to i32
  %65 = icmp ne i32 %60, %64
  br i1 %65, label %66, label %86

66:                                               ; preds = %52
  %67 = load ptr, ptr %3, align 8
  %68 = getelementptr inbounds nuw %struct.client_request, ptr %67, i32 0, i32 1
  %69 = load ptr, ptr %68, align 8
  %70 = load i32, ptr %4, align 4
  %71 = sext i32 %70 to i64
  %72 = getelementptr inbounds i8, ptr %69, i64 %71
  %73 = load i8, ptr %72, align 1
  %74 = sext i8 %73 to i32
  %75 = load ptr, ptr %3, align 8
  %76 = getelementptr inbounds nuw %struct.client_request, ptr %75, i32 0, i32 3
  %77 = load i8, ptr %76, align 1
  %78 = sext i8 %77 to i32
  %79 = icmp ne i32 %74, %78
  br i1 %79, label %80, label %86

80:                                               ; preds = %66
  %81 = load i32, ptr %4, align 4
  %82 = load ptr, ptr %3, align 8
  %83 = getelementptr inbounds nuw %struct.client_request, ptr %82, i32 0, i32 0
  %84 = load i32, ptr %83, align 8
  %85 = icmp slt i32 %81, %84
  br label %86

86:                                               ; preds = %80, %66, %52
  %87 = phi i1 [ false, %66 ], [ false, %52 ], [ %85, %80 ]
  br i1 %87, label %88, label %91

88:                                               ; preds = %86
  %89 = load i32, ptr %4, align 4
  %90 = add nsw i32 %89, 1
  store i32 %90, ptr %4, align 4
  br label %52, !llvm.loop !8

91:                                               ; preds = %86
  br label %141

92:                                               ; preds = %35
  %93 = call i32 @is_pmi20()
  %94 = icmp ne i32 %93, 0
  br i1 %94, label %95, label %140

95:                                               ; preds = %92
  %96 = load ptr, ptr %3, align 8
  %97 = getelementptr inbounds nuw %struct.client_request, ptr %96, i32 0, i32 2
  store i8 59, ptr %97, align 8
  %98 = load ptr, ptr %3, align 8
  %99 = getelementptr inbounds nuw %struct.client_request, ptr %98, i32 0, i32 3
  store i8 59, ptr %99, align 1
  br label %100

100:                                              ; preds = %136, %95
  %101 = load ptr, ptr %3, align 8
  %102 = getelementptr inbounds nuw %struct.client_request, ptr %101, i32 0, i32 1
  %103 = load ptr, ptr %102, align 8
  %104 = load i32, ptr %4, align 4
  %105 = sext i32 %104 to i64
  %106 = getelementptr inbounds i8, ptr %103, i64 %105
  %107 = load i8, ptr %106, align 1
  %108 = sext i8 %107 to i32
  %109 = load ptr, ptr %3, align 8
  %110 = getelementptr inbounds nuw %struct.client_request, ptr %109, i32 0, i32 2
  %111 = load i8, ptr %110, align 8
  %112 = sext i8 %111 to i32
  %113 = icmp ne i32 %108, %112
  br i1 %113, label %114, label %134

114:                                              ; preds = %100
  %115 = load ptr, ptr %3, align 8
  %116 = getelementptr inbounds nuw %struct.client_request, ptr %115, i32 0, i32 1
  %117 = load ptr, ptr %116, align 8
  %118 = load i32, ptr %4, align 4
  %119 = sext i32 %118 to i64
  %120 = getelementptr inbounds i8, ptr %117, i64 %119
  %121 = load i8, ptr %120, align 1
  %122 = sext i8 %121 to i32
  %123 = load ptr, ptr %3, align 8
  %124 = getelementptr inbounds nuw %struct.client_request, ptr %123, i32 0, i32 3
  %125 = load i8, ptr %124, align 1
  %126 = sext i8 %125 to i32
  %127 = icmp ne i32 %122, %126
  br i1 %127, label %128, label %134

128:                                              ; preds = %114
  %129 = load i32, ptr %4, align 4
  %130 = load ptr, ptr %3, align 8
  %131 = getelementptr inbounds nuw %struct.client_request, ptr %130, i32 0, i32 0
  %132 = load i32, ptr %131, align 8
  %133 = icmp slt i32 %129, %132
  br label %134

134:                                              ; preds = %128, %114, %100
  %135 = phi i1 [ false, %114 ], [ false, %100 ], [ %133, %128 ]
  br i1 %135, label %136, label %139

136:                                              ; preds = %134
  %137 = load i32, ptr %4, align 4
  %138 = add nsw i32 %137, 1
  store i32 %138, ptr %4, align 4
  br label %100, !llvm.loop !11

139:                                              ; preds = %134
  br label %140

140:                                              ; preds = %139, %92
  br label %141

141:                                              ; preds = %140, %91
  %142 = load i32, ptr %4, align 4
  %143 = load ptr, ptr %3, align 8
  %144 = getelementptr inbounds nuw %struct.client_request, ptr %143, i32 0, i32 0
  %145 = load i32, ptr %144, align 8
  %146 = icmp sge i32 %142, %145
  br i1 %146, label %147, label %149

147:                                              ; preds = %141
  %148 = call i32 (ptr, ...) @slurm_error(ptr noundef @.str.56)
  store i32 -1, ptr %2, align 4
  store i32 1, ptr %6, align 4
  br label %160

149:                                              ; preds = %141
  %150 = load ptr, ptr %3, align 8
  %151 = getelementptr inbounds nuw %struct.client_request, ptr %150, i32 0, i32 1
  %152 = load ptr, ptr %151, align 8
  %153 = load i32, ptr %4, align 4
  %154 = sext i32 %153 to i64
  %155 = getelementptr inbounds i8, ptr %152, i64 %154
  store i8 0, ptr %155, align 1
  %156 = load i32, ptr %4, align 4
  %157 = add nsw i32 %156, 1
  %158 = load ptr, ptr %3, align 8
  %159 = getelementptr inbounds nuw %struct.client_request, ptr %158, i32 0, i32 4
  store i32 %157, ptr %159, align 4
  store i32 0, ptr %2, align 4
  store i32 1, ptr %6, align 4
  br label %160

160:                                              ; preds = %149, %147, %29, %14
  call void @llvm.lifetime.end.p0(i64 4, ptr %5) #7
  call void @llvm.lifetime.end.p0(i64 4, ptr %4) #7
  %161 = load i32, ptr %2, align 4
  ret i32 %161
}

; Function Attrs: nounwind uwtable
define dso_local ptr @client_req_init(i32 noundef %0, ptr noundef %1) #0 {
  %3 = alloca i32, align 4
  %4 = alloca ptr, align 8
  %5 = alloca ptr, align 8
  store i32 %0, ptr %3, align 4
  store ptr %1, ptr %4, align 8
  call void @llvm.lifetime.start.p0(i64 8, ptr %5) #7
  store ptr null, ptr %5, align 8
  %6 = call ptr @slurm_xcalloc(i64 noundef 1, i64 noundef 48, i1 noundef zeroext true, i1 noundef zeroext false, ptr noundef @.str.3, i32 noundef 168, ptr noundef @__func__.client_req_init)
  store ptr %6, ptr %5, align 8
  %7 = load ptr, ptr %4, align 8
  %8 = load ptr, ptr %5, align 8
  %9 = getelementptr inbounds nuw %struct.client_request, ptr %8, i32 0, i32 1
  store ptr %7, ptr %9, align 8
  %10 = load i32, ptr %3, align 4
  %11 = load ptr, ptr %5, align 8
  %12 = getelementptr inbounds nuw %struct.client_request, ptr %11, i32 0, i32 0
  store i32 %10, ptr %12, align 8
  %13 = load ptr, ptr %5, align 8
  %14 = getelementptr inbounds nuw %struct.client_request, ptr %13, i32 0, i32 4
  store i32 0, ptr %14, align 4
  %15 = load ptr, ptr %5, align 8
  %16 = call i32 @_parse_cmd(ptr noundef %15)
  %17 = icmp ne i32 %16, 0
  br i1 %17, label %18, label %19

18:                                               ; preds = %2
  call void @slurm_xfree(ptr noundef %5)
  br label %19

19:                                               ; preds = %18, %2
  %20 = load ptr, ptr %5, align 8
  call void @llvm.lifetime.end.p0(i64 8, ptr %5) #7
  ret ptr %20
}