; Function Attrs: nounwind uwtable
define dso_local ptr @client_req_init(i32 noundef %0, ptr noundef %1) local_unnamed_addr #2 {
  %3 = alloca ptr, align 8
  call void @llvm.lifetime.start.p0(i64 8, ptr nonnull %3) #11
  %4 = tail call ptr @slurm_xcalloc(i64 noundef 1, i64 noundef 48, i1 noundef zeroext true, i1 noundef zeroext false, ptr noundef nonnull @.str.3, i32 noundef 168, ptr noundef nonnull @__func__.client_req_init) #11
  store ptr %4, ptr %3, align 8
  %5 = getelementptr inbounds nuw i8, ptr %4, i64 8
  store ptr %1, ptr %5, align 8
  store i32 %0, ptr %4, align 8
  %6 = getelementptr inbounds nuw i8, ptr %4, i64 20
  store i32 0, ptr %6, align 4
  %7 = tail call i32 @slurm_xstrncmp(ptr noundef %1, ptr noundef nonnull @.str.51, i64 noundef 5) #11
  %.not.i = icmp eq i32 %7, 0
  br i1 %.not.i, label %8, label %12

8:                                                ; preds = %2
  %9 = getelementptr inbounds nuw i8, ptr %4, i64 24
  store ptr @.str.52, ptr %9, align 8
  %10 = getelementptr inbounds nuw i8, ptr %4, i64 16
  store i8 10, ptr %10, align 8
  %11 = getelementptr inbounds nuw i8, ptr %4, i64 17
  store i8 10, ptr %11, align 1
  br label %_parse_cmd.exit.thread

12:                                               ; preds = %2
  %13 = load ptr, ptr %5, align 8
  %14 = tail call i32 @slurm_xstrncmp(ptr noundef %13, ptr noundef nonnull @.str.53, i64 noundef 4) #11
  %.not45.i = icmp eq i32 %14, 0
  br i1 %.not45.i, label %19, label %15

15:                                               ; preds = %12
  %16 = tail call i32 (ptr, ...) @slurm_error(ptr noundef nonnull @.str.54) #11
  %17 = load ptr, ptr %5, align 8
  %18 = tail call i32 (ptr, ...) @slurm_error(ptr noundef nonnull @.str.55, ptr noundef %17) #11
  br label %_parse_cmd.exit

19:                                               ; preds = %12
  %20 = load ptr, ptr %5, align 8
  %21 = getelementptr inbounds nuw i8, ptr %20, i64 4
  %22 = getelementptr inbounds nuw i8, ptr %4, i64 24
  store ptr %21, ptr %22, align 8
  %23 = load i32, ptr @pmi_version, align 4
  %24 = icmp ne i32 %23, 1
  %25 = load i32, ptr @pmi_subversion, align 4
  %26 = icmp ne i32 %25, 1
  %.not55.i = select i1 %24, i1 true, i1 %26
  br i1 %.not55.i, label %38, label %27

27:                                               ; preds = %19
  %28 = getelementptr inbounds nuw i8, ptr %4, i64 16
  store i8 32, ptr %28, align 8
  %29 = getelementptr inbounds nuw i8, ptr %4, i64 17
  store i8 10, ptr %29, align 1
  br label %30

30:                                               ; preds = %37, %27
  %indvars.iv.i = phi i64 [ %indvars.iv.next.i, %37 ], [ 4, %27 ]
  %31 = getelementptr inbounds nuw i8, ptr %20, i64 %indvars.iv.i
  %32 = load i8, ptr %31, align 1
  switch i8 %32, label %33 [
    i8 32, label %.critedge.loopexit69.i
    i8 10, label %.critedge.loopexit69.i
  ]

33:                                               ; preds = %30
  %34 = load i32, ptr %4, align 8
  %35 = sext i32 %34 to i64
  %36 = icmp slt i64 %indvars.iv.i, %35
  br i1 %36, label %37, label %.critedge.loopexit69.i

37:                                               ; preds = %33
  %indvars.iv.next.i = add nuw nsw i64 %indvars.iv.i, 1
  br label %30, !llvm.loop !8

38:                                               ; preds = %19
  %39 = icmp ne i32 %23, 2
  %40 = icmp ne i32 %25, 0
  %.not58.i = select i1 %39, i1 true, i1 %40
  br i1 %.not58.i, label %.critedge.i, label %41

41:                                               ; preds = %38
  %42 = getelementptr inbounds nuw i8, ptr %4, i64 16
  store i8 59, ptr %42, align 8
  %43 = getelementptr inbounds nuw i8, ptr %4, i64 17
  store i8 59, ptr %43, align 1
  %44 = load i8, ptr %21, align 1
  %.not4860.i = icmp eq i8 %44, 59
  br i1 %.not4860.i, label %.critedge.i, label %.lr.ph.i

.lr.ph.i:                                         ; preds = %41
  %45 = load i32, ptr %4, align 8
  %smax.i = tail call i32 @llvm.smax.i32(i32 %45, i32 4)
  %wide.trip.count.i = zext nneg i32 %smax.i to i64
  br label %46

46:                                               ; preds = %47, %.lr.ph.i
  %indvars.iv66.i = phi i64 [ 4, %.lr.ph.i ], [ %indvars.iv.next67.i, %47 ]
  %exitcond.not.i = icmp eq i64 %indvars.iv66.i, %wide.trip.count.i
  br i1 %exitcond.not.i, label %.critedge.i, label %47

47:                                               ; preds = %46
  %indvars.iv.next67.i = add nuw nsw i64 %indvars.iv66.i, 1
  %48 = getelementptr inbounds nuw i8, ptr %20, i64 %indvars.iv.next67.i
  %49 = load i8, ptr %48, align 1
  %.not48.i = icmp eq i8 %49, 59
  br i1 %.not48.i, label %.critedge.loopexit.split.loop.exit.i, label %46, !llvm.loop !11

.critedge.loopexit.split.loop.exit.i:             ; preds = %47
  %indvars.le.i = trunc i64 %indvars.iv.next67.i to i32
  br label %.critedge.i

.critedge.loopexit69.i:                           ; preds = %33, %30, %30
  %50 = trunc nuw nsw i64 %indvars.iv.i to i32
  br label %.critedge.i

.critedge.i:                                      ; preds = %46, %.critedge.loopexit69.i, %.critedge.loopexit.split.loop.exit.i, %41, %38
  %.1.i = phi i32 [ 4, %38 ], [ 4, %41 ], [ %50, %.critedge.loopexit69.i ], [ %indvars.le.i, %.critedge.loopexit.split.loop.exit.i ], [ %smax.i, %46 ]
  %51 = load i32, ptr %4, align 8
  %.not52.i = icmp slt i32 %.1.i, %51
  br i1 %.not52.i, label %54, label %52

52:                                               ; preds = %.critedge.i
  %53 = tail call i32 (ptr, ...) @slurm_error(ptr noundef nonnull @.str.56) #11
  br label %_parse_cmd.exit

54:                                               ; preds = %.critedge.i
  %55 = zext nneg i32 %.1.i to i64
  %56 = getelementptr inbounds nuw i8, ptr %20, i64 %55
  store i8 0, ptr %56, align 1
  %57 = add nuw nsw i32 %.1.i, 1
  store i32 %57, ptr %6, align 4
  br label %_parse_cmd.exit.thread

_parse_cmd.exit:                                  ; preds = %52, %15
  call void @slurm_xfree(ptr noundef nonnull %3) #11
  %.pre = load ptr, ptr %3, align 8
  br label %_parse_cmd.exit.thread

_parse_cmd.exit.thread:                           ; preds = %8, %54, %_parse_cmd.exit
  %58 = phi ptr [ %4, %8 ], [ %4, %54 ], [ %.pre, %_parse_cmd.exit ]
  call void @llvm.lifetime.end.p0(i64 8, ptr nonnull %3) #11
  ret ptr %58
}